	.file	"test.c"
	.text
	.section	.rodata
.LC0:
	.string	"fundamentals of compiling"
	.text
	.globl	print_message
	.type	print_message, @function
print_message:
.LFB6:
	.cfi_startproc
	endbr64
	pushq	%rbp
	.cfi_def_cfa_offset 16
	.cfi_offset 6, -16
	movq	%rsp, %rbp
	.cfi_def_cfa_register 6
	leaq	.LC0(%rip), %rax
	movq	%rax, %rdi
	call	puts@PLT
	nop
	popq	%rbp
	.cfi_def_cfa 7, 8
	ret
	.cfi_endproc
.LFE6:
	.size	print_message, .-print_message
	.globl	add
	.type	add, @function
add:
.LFB7:
	.cfi_startproc
	endbr64
	pushq	%rbp
	.cfi_def_cfa_offset 16
	.cfi_offset 6, -16
	movq	%rsp, %rbp
	.cfi_def_cfa_register 6
	movl	%edi, -4(%rbp)
	movl	%esi, -8(%rbp)
	movl	-4(%rbp), %edx
	movl	-8(%rbp), %eax
	addl	%edx, %eax
	popq	%rbp
	.cfi_def_cfa 7, 8
	ret
	.cfi_endproc
.LFE7:
	.size	add, .-add
	.section	.rodata
.LC4:
	.string	"%d"
.LC6:
	.string	"integer: %d\n"
.LC8:
	.string	"floating: %f\n"
.LC9:
	.string	"constant: %d\n"
.LC10:
	.string	"sum2: %f\n"
	.text
	.globl	main
	.type	main, @function
main:
.LFB8:
	.cfi_startproc
	endbr64
	pushq	%rbp
	.cfi_def_cfa_offset 16
	.cfi_offset 6, -16
	movq	%rsp, %rbp
	.cfi_def_cfa_register 6
	subq	$32, %rsp
	movq	%fs:40, %rax
	movq	%rax, -8(%rbp)
	xorl	%eax, %eax
	movss	.LC1(%rip), %xmm0
	movss	%xmm0, -20(%rbp)
	movss	.LC2(%rip), %xmm0
	movss	%xmm0, -16(%rbp)
	pxor	%xmm0, %xmm0
	movss	%xmm0, -12(%rbp)
	leaq	-32(%rbp), %rax
	movq	%rax, %rsi
	leaq	.LC4(%rip), %rax
	movq	%rax, %rdi
	movl	$0, %eax
	call	__isoc99_scanf@PLT
	movl	$0, -28(%rbp)
	jmp	.L5
.L6:
	movss	-12(%rbp), %xmm0
	pxor	%xmm1, %xmm1
	cvtss2sd	%xmm0, %xmm1
	pxor	%xmm2, %xmm2
	cvtsi2sdl	-28(%rbp), %xmm2
	movsd	.LC5(%rip), %xmm0
	mulsd	%xmm2, %xmm0
	addsd	%xmm1, %xmm0
	cvtsd2ss	%xmm0, %xmm0
	movss	%xmm0, -12(%rbp)
	addl	$1, -28(%rbp)
.L5:
	movl	-32(%rbp), %eax
	cmpl	%eax, -28(%rbp)
	jle	.L6
	movss	-16(%rbp), %xmm0
	cvttss2sil	%xmm0, %edx
	movss	-20(%rbp), %xmm0
	cvttss2sil	%xmm0, %eax
	movl	%edx, %esi
	movl	%eax, %edi
	call	add
	movl	%eax, -24(%rbp)
	movl	$0, %eax
	call	print_message
	movl	-24(%rbp), %eax
	movl	%eax, %esi
	leaq	.LC6(%rip), %rax
	movq	%rax, %rdi
	movl	$0, %eax
	call	printf@PLT
	movq	.LC7(%rip), %rax
	movq	%rax, %xmm0
	leaq	.LC8(%rip), %rax
	movq	%rax, %rdi
	movl	$1, %eax
	call	printf@PLT
	movl	$42, %esi
	leaq	.LC9(%rip), %rax
	movq	%rax, %rdi
	movl	$0, %eax
	call	printf@PLT
	movss	-12(%rbp), %xmm0
	pxor	%xmm3, %xmm3
	cvtss2sd	%xmm0, %xmm3
	movq	%xmm3, %rax
	movq	%rax, %xmm0
	leaq	.LC10(%rip), %rax
	movq	%rax, %rdi
	movl	$1, %eax
	call	printf@PLT
	movl	$0, %eax
	movq	-8(%rbp), %rdx
	subq	%fs:40, %rdx
	je	.L8
	call	__stack_chk_fail@PLT
.L8:
	leave
	.cfi_def_cfa 7, 8
	ret
	.cfi_endproc
.LFE8:
	.size	main, .-main
	.section	.rodata
	.align 4
.LC1:
	.long	1084227584
	.align 4
.LC2:
	.long	1088421888
	.align 8
.LC5:
	.long	-1717986918
	.long	1069128089
	.align 8
.LC7:
	.long	1374389535
	.long	1074339512
	.ident	"GCC: (Ubuntu 13.2.0-23ubuntu4) 13.2.0"
	.section	.note.GNU-stack,"",@progbits
	.section	.note.gnu.property,"a"
	.align 8
	.long	1f - 0f
	.long	4f - 1f
	.long	5
0:
	.string	"GNU"
1:
	.align 8
	.long	0xc0000002
	.long	3f - 2f
2:
	.long	0x3
3:
	.align 8
4:
